; ModuleID = '56/794.c'
source_filename = "56/794.c"
target datalayout = "e-m:e-p270:32:32-p271:32:32-p272:64:64-i64:64-f80:128-n8:16:32:64-S128"
target triple = "x86_64-pc-linux-gnu"

@.str = private unnamed_addr constant [3 x i8] c"%d\00", align 1

; Function Attrs: noinline nounwind uwtable
define dso_local void @main() #0 {
  %1 = alloca i32, align 4
  %2 = alloca i32, align 4
  %3 = alloca i32, align 4
  %4 = call i32 (i8*, ...) @__isoc99_scanf(i8* getelementptr inbounds ([3 x i8], [3 x i8]* @.str, i64 0, i64 0), i32* %1)
  store i32 0, i32* %2, align 4
  %5 = load i32, i32* %1, align 4
  %6 = srem i32 %5, 10
  store i32 %6, i32* %3, align 4
  br label %7

7:                                                ; preds = %10, %0
  %8 = load i32, i32* %1, align 4
  %9 = icmp sgt i32 %8, 0
  br i1 %9, label %10, label %21

10:                                               ; preds = %7
  %11 = load i32, i32* %2, align 4
  %12 = mul nsw i32 %11, 10
  %13 = load i32, i32* %3, align 4
  %14 = add nsw i32 %12, %13
  store i32 %14, i32* %2, align 4
  %15 = load i32, i32* %1, align 4
  %16 = load i32, i32* %3, align 4
  %17 = sub nsw i32 %15, %16
  %18 = sdiv i32 %17, 10
  store i32 %18, i32* %1, align 4
  %19 = load i32, i32* %1, align 4
  %20 = srem i32 %19, 10
  store i32 %20, i32* %3, align 4
  br label %7

21:                                               ; preds = %7
  %22 = load i32, i32* %2, align 4
  %23 = call i32 (i8*, ...) @printf(i8* getelementptr inbounds ([3 x i8], [3 x i8]* @.str, i64 0, i64 0), i32 %22)
  ret void
}

declare dso_local i32 @__isoc99_scanf(i8*, ...) #1

declare dso_local i32 @printf(i8*, ...) #1


!llvm.module.flags = !{!0}
!llvm.ident = !{!1}

!0 = !{i32 1, !"wchar_size", i32 4}
!1 = !{!"clang version 10.0.0-4ubuntu1 "}
